target datalayout = "e-m:e-p270:32:32-p271:32:32-p272:64:64-i64:64-i128:128-f80:128-n8:16:32:64-S128"
target triple = "x86_64-pc-linux-gnu"

%struct.phpdbg_btree = type { i64, i64, i8, ptr }
%struct.phpdbg_btree_result = type { i64, ptr }
%union._phpdbg_btree_branch = type { [2 x ptr] }

; Function Attrs: nounwind uwtable
define hidden i32 @phpdbg_btree_insert_or_update(ptr noundef %0, i64 noundef %1, ptr noundef %2, i32 noundef %3) #0 {
  %5 = alloca i32, align 4
  %6 = alloca ptr, align 8
  %7 = alloca i64, align 8
  %8 = alloca ptr, align 8
  %9 = alloca i32, align 4
  %10 = alloca i32, align 4
  %11 = alloca ptr, align 8
  %12 = alloca ptr, align 8
  store ptr %0, ptr %6, align 8
  store i64 %1, ptr %7, align 8
  store ptr %2, ptr %8, align 8
  store i32 %3, ptr %9, align 4
  %13 = load ptr, ptr %6, align 8
  %14 = getelementptr inbounds %struct.phpdbg_btree, ptr %13, i32 0, i32 1
  %15 = load i64, ptr %14, align 8
  %16 = sub i64 %15, 1
  %17 = trunc i64 %16 to i32
  store i32 %17, ptr %10, align 4
  %18 = load ptr, ptr %6, align 8
  %19 = getelementptr inbounds %struct.phpdbg_btree, ptr %18, i32 0, i32 3
  store ptr %19, ptr %11, align 8
  br label %20

20:                                               ; preds = %34, %4
  %21 = load ptr, ptr %11, align 8
  %22 = load ptr, ptr %21, align 8
  %23 = icmp eq ptr %22, null
  br i1 %23, label %24, label %25

24:                                               ; preds = %20
  br label %38

25:                                               ; preds = %20
  %26 = load ptr, ptr %11, align 8
  %27 = load ptr, ptr %26, align 8
  %28 = load i64, ptr %7, align 8
  %29 = load i32, ptr %10, align 4
  %30 = zext i32 %29 to i64
  %31 = lshr i64 %28, %30
  %32 = urem i64 %31, 2
  %33 = getelementptr inbounds [2 x ptr], ptr %27, i64 0, i64 %32
  store ptr %33, ptr %11, align 8
  br label %34

34:                                               ; preds = %25
  %35 = load i32, ptr %10, align 4
  %36 = add nsw i32 %35, -1
  store i32 %36, ptr %10, align 4
  %37 = icmp ne i32 %35, 0
  br i1 %37, label %20, label %38

38:                                               ; preds = %34, %24
  %39 = load ptr, ptr %11, align 8
  %40 = load ptr, ptr %39, align 8
  %41 = icmp eq ptr %40, null
  br i1 %41, label %42, label %428

42:                                               ; preds = %38
  %43 = load i32, ptr %9, align 4
  %44 = and i32 %43, 1
  %45 = icmp ne i32 %44, 0
  br i1 %45, label %47, label %46

46:                                               ; preds = %42
  store i32 -1, ptr %5, align 4
  br label %443

47:                                               ; preds = %42
  %48 = load ptr, ptr %6, align 8
  %49 = getelementptr inbounds %struct.phpdbg_btree, ptr %48, i32 0, i32 2
  %50 = load i8, ptr %49, align 8
  %51 = trunc i8 %50 to i1
  br i1 %51, label %52, label %58

52:                                               ; preds = %47
  %53 = load i32, ptr %10, align 4
  %54 = add nsw i32 %53, 2
  %55 = sext i32 %54 to i64
  %56 = mul i64 %55, 16
  %57 = call noalias ptr @__zend_malloc(i64 noundef %56) #6
  br label %392

58:                                               ; preds = %47
  %59 = load i32, ptr %10, align 4
  %60 = add nsw i32 %59, 2
  %61 = sext i32 %60 to i64
  %62 = mul i64 %61, 16
  %63 = call i1 @llvm.is.constant.i64(i64 %62)
  br i1 %63, label %64, label %384

64:                                               ; preds = %58
  %65 = load i32, ptr %10, align 4
  %66 = add nsw i32 %65, 2
  %67 = sext i32 %66 to i64
  %68 = mul i64 %67, 16
  %69 = icmp ule i64 %68, 8
  br i1 %69, label %70, label %72

70:                                               ; preds = %64
  %71 = call noalias ptr @_emalloc_8()
  br label %382

72:                                               ; preds = %64
  %73 = load i32, ptr %10, align 4
  %74 = add nsw i32 %73, 2
  %75 = sext i32 %74 to i64
  %76 = mul i64 %75, 16
  %77 = icmp ule i64 %76, 16
  br i1 %77, label %78, label %80

78:                                               ; preds = %72
  %79 = call noalias ptr @_emalloc_16()
  br label %380

80:                                               ; preds = %72
  %81 = load i32, ptr %10, align 4
  %82 = add nsw i32 %81, 2
  %83 = sext i32 %82 to i64
  %84 = mul i64 %83, 16
  %85 = icmp ule i64 %84, 24
  br i1 %85, label %86, label %88

86:                                               ; preds = %80
  %87 = call noalias ptr @_emalloc_24()
  br label %378

88:                                               ; preds = %80
  %89 = load i32, ptr %10, align 4
  %90 = add nsw i32 %89, 2
  %91 = sext i32 %90 to i64
  %92 = mul i64 %91, 16
  %93 = icmp ule i64 %92, 32
  br i1 %93, label %94, label %96

94:                                               ; preds = %88
  %95 = call noalias ptr @_emalloc_32()
  br label %376

96:                                               ; preds = %88
  %97 = load i32, ptr %10, align 4
  %98 = add nsw i32 %97, 2
  %99 = sext i32 %98 to i64
  %100 = mul i64 %99, 16
  %101 = icmp ule i64 %100, 40
  br i1 %101, label %102, label %104

102:                                              ; preds = %96
  %103 = call noalias ptr @_emalloc_40()
  br label %374

104:                                              ; preds = %96
  %105 = load i32, ptr %10, align 4
  %106 = add nsw i32 %105, 2
  %107 = sext i32 %106 to i64
  %108 = mul i64 %107, 16
  %109 = icmp ule i64 %108, 48
  br i1 %109, label %110, label %112

110:                                              ; preds = %104
  %111 = call noalias ptr @_emalloc_48()
  br label %372

112:                                              ; preds = %104
  %113 = load i32, ptr %10, align 4
  %114 = add nsw i32 %113, 2
  %115 = sext i32 %114 to i64
  %116 = mul i64 %115, 16
  %117 = icmp ule i64 %116, 56
  br i1 %117, label %118, label %120

118:                                              ; preds = %112
  %119 = call noalias ptr @_emalloc_56()
  br label %370

120:                                              ; preds = %112
  %121 = load i32, ptr %10, align 4
  %122 = add nsw i32 %121, 2
  %123 = sext i32 %122 to i64
  %124 = mul i64 %123, 16
  %125 = icmp ule i64 %124, 64
  br i1 %125, label %126, label %128

126:                                              ; preds = %120
  %127 = call noalias ptr @_emalloc_64()
  br label %368

128:                                              ; preds = %120
  %129 = load i32, ptr %10, align 4
  %130 = add nsw i32 %129, 2
  %131 = sext i32 %130 to i64
  %132 = mul i64 %131, 16
  %133 = icmp ule i64 %132, 80
  br i1 %133, label %134, label %136

134:                                              ; preds = %128
  %135 = call noalias ptr @_emalloc_80()
  br label %366

136:                                              ; preds = %128
  %137 = load i32, ptr %10, align 4
  %138 = add nsw i32 %137, 2
  %139 = sext i32 %138 to i64
  %140 = mul i64 %139, 16
  %141 = icmp ule i64 %140, 96
  br i1 %141, label %142, label %144

142:                                              ; preds = %136
  %143 = call noalias ptr @_emalloc_96()
  br label %364

144:                                              ; preds = %136
  %145 = load i32, ptr %10, align 4
  %146 = add nsw i32 %145, 2
  %147 = sext i32 %146 to i64
  %148 = mul i64 %147, 16
  %149 = icmp ule i64 %148, 112
  br i1 %149, label %150, label %152

150:                                              ; preds = %144
  %151 = call noalias ptr @_emalloc_112()
  br label %362

152:                                              ; preds = %144
  %153 = load i32, ptr %10, align 4
  %154 = add nsw i32 %153, 2
  %155 = sext i32 %154 to i64
  %156 = mul i64 %155, 16
  %157 = icmp ule i64 %156, 128
  br i1 %157, label %158, label %160

158:                                              ; preds = %152
  %159 = call noalias ptr @_emalloc_128()
  br label %360

160:                                              ; preds = %152
  %161 = load i32, ptr %10, align 4
  %162 = add nsw i32 %161, 2
  %163 = sext i32 %162 to i64
  %164 = mul i64 %163, 16
  %165 = icmp ule i64 %164, 160
  br i1 %165, label %166, label %168

166:                                              ; preds = %160
  %167 = call noalias ptr @_emalloc_160()
  br label %358

168:                                              ; preds = %160
  %169 = load i32, ptr %10, align 4
  %170 = add nsw i32 %169, 2
  %171 = sext i32 %170 to i64
  %172 = mul i64 %171, 16
  %173 = icmp ule i64 %172, 192
  br i1 %173, label %174, label %176

174:                                              ; preds = %168
  %175 = call noalias ptr @_emalloc_192()
  br label %356

176:                                              ; preds = %168
  %177 = load i32, ptr %10, align 4
  %178 = add nsw i32 %177, 2
  %179 = sext i32 %178 to i64
  %180 = mul i64 %179, 16
  %181 = icmp ule i64 %180, 224
  br i1 %181, label %182, label %184

182:                                              ; preds = %176
  %183 = call noalias ptr @_emalloc_224()
  br label %354

184:                                              ; preds = %176
  %185 = load i32, ptr %10, align 4
  %186 = add nsw i32 %185, 2
  %187 = sext i32 %186 to i64
  %188 = mul i64 %187, 16
  %189 = icmp ule i64 %188, 256
  br i1 %189, label %190, label %192

190:                                              ; preds = %184
  %191 = call noalias ptr @_emalloc_256()
  br label %352

192:                                              ; preds = %184
  %193 = load i32, ptr %10, align 4
  %194 = add nsw i32 %193, 2
  %195 = sext i32 %194 to i64
  %196 = mul i64 %195, 16
  %197 = icmp ule i64 %196, 320
  br i1 %197, label %198, label %200

198:                                              ; preds = %192
  %199 = call noalias ptr @_emalloc_320()
  br label %350

200:                                              ; preds = %192
  %201 = load i32, ptr %10, align 4
  %202 = add nsw i32 %201, 2
  %203 = sext i32 %202 to i64
  %204 = mul i64 %203, 16
  %205 = icmp ule i64 %204, 384
  br i1 %205, label %206, label %208

206:                                              ; preds = %200
  %207 = call noalias ptr @_emalloc_384()
  br label %348

208:                                              ; preds = %200
  %209 = load i32, ptr %10, align 4
  %210 = add nsw i32 %209, 2
  %211 = sext i32 %210 to i64
  %212 = mul i64 %211, 16
  %213 = icmp ule i64 %212, 448
  br i1 %213, label %214, label %216

214:                                              ; preds = %208
  %215 = call noalias ptr @_emalloc_448()
  br label %346

216:                                              ; preds = %208
  %217 = load i32, ptr %10, align 4
  %218 = add nsw i32 %217, 2
  %219 = sext i32 %218 to i64
  %220 = mul i64 %219, 16
  %221 = icmp ule i64 %220, 512
  br i1 %221, label %222, label %224

222:                                              ; preds = %216
  %223 = call noalias ptr @_emalloc_512()
  br label %344

224:                                              ; preds = %216
  %225 = load i32, ptr %10, align 4
  %226 = add nsw i32 %225, 2
  %227 = sext i32 %226 to i64
  %228 = mul i64 %227, 16
  %229 = icmp ule i64 %228, 640
  br i1 %229, label %230, label %232

230:                                              ; preds = %224
  %231 = call noalias ptr @_emalloc_640()
  br label %342

232:                                              ; preds = %224
  %233 = load i32, ptr %10, align 4
  %234 = add nsw i32 %233, 2
  %235 = sext i32 %234 to i64
  %236 = mul i64 %235, 16
  %237 = icmp ule i64 %236, 768
  br i1 %237, label %238, label %240

238:                                              ; preds = %232
  %239 = call noalias ptr @_emalloc_768()
  br label %340

240:                                              ; preds = %232
  %241 = load i32, ptr %10, align 4
  %242 = add nsw i32 %241, 2
  %243 = sext i32 %242 to i64
  %244 = mul i64 %243, 16
  %245 = icmp ule i64 %244, 896
  br i1 %245, label %246, label %248

246:                                              ; preds = %240
  %247 = call noalias ptr @_emalloc_896()
  br label %338

248:                                              ; preds = %240
  %249 = load i32, ptr %10, align 4
  %250 = add nsw i32 %249, 2
  %251 = sext i32 %250 to i64
  %252 = mul i64 %251, 16
  %253 = icmp ule i64 %252, 1024
  br i1 %253, label %254, label %256

254:                                              ; preds = %248
  %255 = call noalias ptr @_emalloc_1024()
  br label %336

256:                                              ; preds = %248
  %257 = load i32, ptr %10, align 4
  %258 = add nsw i32 %257, 2
  %259 = sext i32 %258 to i64
  %260 = mul i64 %259, 16
  %261 = icmp ule i64 %260, 1280
  br i1 %261, label %262, label %264

262:                                              ; preds = %256
  %263 = call noalias ptr @_emalloc_1280()
  br label %334

264:                                              ; preds = %256
  %265 = load i32, ptr %10, align 4
  %266 = add nsw i32 %265, 2
  %267 = sext i32 %266 to i64
  %268 = mul i64 %267, 16
  %269 = icmp ule i64 %268, 1536
  br i1 %269, label %270, label %272

270:                                              ; preds = %264
  %271 = call noalias ptr @_emalloc_1536()
  br label %332

272:                                              ; preds = %264
  %273 = load i32, ptr %10, align 4
  %274 = add nsw i32 %273, 2
  %275 = sext i32 %274 to i64
  %276 = mul i64 %275, 16
  %277 = icmp ule i64 %276, 1792
  br i1 %277, label %278, label %280

278:                                              ; preds = %272
  %279 = call noalias ptr @_emalloc_1792()
  br label %330

280:                                              ; preds = %272
  %281 = load i32, ptr %10, align 4
  %282 = add nsw i32 %281, 2
  %283 = sext i32 %282 to i64
  %284 = mul i64 %283, 16
  %285 = icmp ule i64 %284, 2048
  br i1 %285, label %286, label %288

286:                                              ; preds = %280
  %287 = call noalias ptr @_emalloc_2048()
  br label %328

288:                                              ; preds = %280
  %289 = load i32, ptr %10, align 4
  %290 = add nsw i32 %289, 2
  %291 = sext i32 %290 to i64
  %292 = mul i64 %291, 16
  %293 = icmp ule i64 %292, 2560
  br i1 %293, label %294, label %296

294:                                              ; preds = %288
  %295 = call noalias ptr @_emalloc_2560()
  br label %326

296:                                              ; preds = %288
  %297 = load i32, ptr %10, align 4
  %298 = add nsw i32 %297, 2
  %299 = sext i32 %298 to i64
  %300 = mul i64 %299, 16
  %301 = icmp ule i64 %300, 3072
  br i1 %301, label %302, label %304

302:                                              ; preds = %296
  %303 = call noalias ptr @_emalloc_3072()
  br label %324

304:                                              ; preds = %296
  %305 = load i32, ptr %10, align 4
  %306 = add nsw i32 %305, 2
  %307 = sext i32 %306 to i64
  %308 = mul i64 %307, 16
  %309 = icmp ule i64 %308, 2093056
  br i1 %309, label %310, label %316

310:                                              ; preds = %304
  %311 = load i32, ptr %10, align 4
  %312 = add nsw i32 %311, 2
  %313 = sext i32 %312 to i64
  %314 = mul i64 %313, 16
  %315 = call noalias ptr @_emalloc_large(i64 noundef %314) #6
  br label %322

316:                                              ; preds = %304
  %317 = load i32, ptr %10, align 4
  %318 = add nsw i32 %317, 2
  %319 = sext i32 %318 to i64
  %320 = mul i64 %319, 16
  %321 = call noalias ptr @_emalloc_huge(i64 noundef %320) #6
  br label %322

322:                                              ; preds = %316, %310
  %323 = phi ptr [ %315, %310 ], [ %321, %316 ]
  br label %324

324:                                              ; preds = %322, %302
  %325 = phi ptr [ %303, %302 ], [ %323, %322 ]
  br label %326

326:                                              ; preds = %324, %294
  %327 = phi ptr [ %295, %294 ], [ %325, %324 ]
  br label %328

328:                                              ; preds = %326, %286
  %329 = phi ptr [ %287, %286 ], [ %327, %326 ]
  br label %330

330:                                              ; preds = %328, %278
  %331 = phi ptr [ %279, %278 ], [ %329, %328 ]
  br label %332

332:                                              ; preds = %330, %270
  %333 = phi ptr [ %271, %270 ], [ %331, %330 ]
  br label %334

334:                                              ; preds = %332, %262
  %335 = phi ptr [ %263, %262 ], [ %333, %332 ]
  br label %336

336:                                              ; preds = %334, %254
  %337 = phi ptr [ %255, %254 ], [ %335, %334 ]
  br label %338

338:                                              ; preds = %336, %246
  %339 = phi ptr [ %247, %246 ], [ %337, %336 ]
  br label %340

340:                                              ; preds = %338, %238
  %341 = phi ptr [ %239, %238 ], [ %339, %338 ]
  br label %342

342:                                              ; preds = %340, %230
  %343 = phi ptr [ %231, %230 ], [ %341, %340 ]
  br label %344

344:                                              ; preds = %342, %222
  %345 = phi ptr [ %223, %222 ], [ %343, %342 ]
  br label %346

346:                                              ; preds = %344, %214
  %347 = phi ptr [ %215, %214 ], [ %345, %344 ]
  br label %348

348:                                              ; preds = %346, %206
  %349 = phi ptr [ %207, %206 ], [ %347, %346 ]
  br label %350

350:                                              ; preds = %348, %198
  %351 = phi ptr [ %199, %198 ], [ %349, %348 ]
  br label %352

352:                                              ; preds = %350, %190
  %353 = phi ptr [ %191, %190 ], [ %351, %350 ]
  br label %354

354:                                              ; preds = %352, %182
  %355 = phi ptr [ %183, %182 ], [ %353, %352 ]
  br label %356

356:                                              ; preds = %354, %174
  %357 = phi ptr [ %175, %174 ], [ %355, %354 ]
  br label %358

358:                                              ; preds = %356, %166
  %359 = phi ptr [ %167, %166 ], [ %357, %356 ]
  br label %360

360:                                              ; preds = %358, %158
  %361 = phi ptr [ %159, %158 ], [ %359, %358 ]
  br label %362

362:                                              ; preds = %360, %150
  %363 = phi ptr [ %151, %150 ], [ %361, %360 ]
  br label %364

364:                                              ; preds = %362, %142
  %365 = phi ptr [ %143, %142 ], [ %363, %362 ]
  br label %366

366:                                              ; preds = %364, %134
  %367 = phi ptr [ %135, %134 ], [ %365, %364 ]
  br label %368

368:                                              ; preds = %366, %126
  %369 = phi ptr [ %127, %126 ], [ %367, %366 ]
  br label %370

370:                                              ; preds = %368, %118
  %371 = phi ptr [ %119, %118 ], [ %369, %368 ]
  br label %372

372:                                              ; preds = %370, %110
  %373 = phi ptr [ %111, %110 ], [ %371, %370 ]
  br label %374

374:                                              ; preds = %372, %102
  %375 = phi ptr [ %103, %102 ], [ %373, %372 ]
  br label %376

376:                                              ; preds = %374, %94
  %377 = phi ptr [ %95, %94 ], [ %375, %374 ]
  br label %378

378:                                              ; preds = %376, %86
  %379 = phi ptr [ %87, %86 ], [ %377, %376 ]
  br label %380

380:                                              ; preds = %378, %78
  %381 = phi ptr [ %79, %78 ], [ %379, %378 ]
  br label %382

382:                                              ; preds = %380, %70
  %383 = phi ptr [ %71, %70 ], [ %381, %380 ]
  br label %390

384:                                              ; preds = %58
  %385 = load i32, ptr %10, align 4
  %386 = add nsw i32 %385, 2
  %387 = sext i32 %386 to i64
  %388 = mul i64 %387, 16
  %389 = call noalias ptr @_emalloc(i64 noundef %388) #6
  br label %390

390:                                              ; preds = %384, %382
  %391 = phi ptr [ %383, %382 ], [ %389, %384 ]
  br label %392

392:                                              ; preds = %390, %52
  %393 = phi ptr [ %57, %52 ], [ %391, %390 ]
  %394 = load ptr, ptr %11, align 8
  store ptr %393, ptr %394, align 8
  store ptr %393, ptr %12, align 8
  br label %395

395:                                              ; preds = %419, %392
  %396 = load ptr, ptr %11, align 8
  %397 = load ptr, ptr %396, align 8
  %398 = load i64, ptr %7, align 8
  %399 = load i32, ptr %10, align 4
  %400 = zext i32 %399 to i64
  %401 = lshr i64 %398, %400
  %402 = urem i64 %401, 2
  %403 = icmp ne i64 %402, 0
  %404 = xor i1 %403, true
  %405 = zext i1 %404 to i32
  %406 = sext i32 %405 to i64
  %407 = getelementptr inbounds [2 x ptr], ptr %397, i64 0, i64 %406
  store ptr null, ptr %407, align 8
  %408 = load ptr, ptr %11, align 8
  %409 = load ptr, ptr %408, align 8
  %410 = load i64, ptr %7, align 8
  %411 = load i32, ptr %10, align 4
  %412 = zext i32 %411 to i64
  %413 = lshr i64 %410, %412
  %414 = urem i64 %413, 2
  %415 = getelementptr inbounds [2 x ptr], ptr %409, i64 0, i64 %414
  store ptr %415, ptr %11, align 8
  %416 = load ptr, ptr %12, align 8
  %417 = getelementptr inbounds %union._phpdbg_btree_branch, ptr %416, i32 1
  store ptr %417, ptr %12, align 8
  %418 = load ptr, ptr %11, align 8
  store ptr %417, ptr %418, align 8
  br label %419

419:                                              ; preds = %395
  %420 = load i32, ptr %10, align 4
  %421 = add nsw i32 %420, -1
  store i32 %421, ptr %10, align 4
  %422 = icmp ne i32 %420, 0
  br i1 %422, label %395, label %423

423:                                              ; preds = %419
  %424 = load ptr, ptr %6, align 8
  %425 = getelementptr inbounds %struct.phpdbg_btree, ptr %424, i32 0, i32 0
  %426 = load i64, ptr %425, align 8
  %427 = add i64 %426, 1
  store i64 %427, ptr %425, align 8
  br label %434

428:                                              ; preds = %38
  %429 = load i32, ptr %9, align 4
  %430 = and i32 %429, 2
  %431 = icmp ne i32 %430, 0
  br i1 %431, label %433, label %432

432:                                              ; preds = %428
  store i32 -1, ptr %5, align 4
  br label %443

433:                                              ; preds = %428
  br label %434

434:                                              ; preds = %433, %423
  %435 = load i64, ptr %7, align 8
  %436 = load ptr, ptr %11, align 8
  %437 = load ptr, ptr %436, align 8
  %438 = getelementptr inbounds %struct.phpdbg_btree_result, ptr %437, i32 0, i32 0
  store i64 %435, ptr %438, align 8
  %439 = load ptr, ptr %8, align 8
  %440 = load ptr, ptr %11, align 8
  %441 = load ptr, ptr %440, align 8
  %442 = getelementptr inbounds %struct.phpdbg_btree_result, ptr %441, i32 0, i32 1
  store ptr %439, ptr %442, align 8
  store i32 0, ptr %5, align 4
  br label %443

443:                                              ; preds = %434, %432, %46
  %444 = load i32, ptr %5, align 4
  ret i32 %444
}