; Function Attrs: nounwind uwtable
define hidden noundef i32 @phpdbg_btree_insert_or_update(ptr nocapture noundef %0, i64 noundef %1, ptr noundef %2, i32 noundef %3) local_unnamed_addr #3 {
  %5 = getelementptr inbounds i8, ptr %0, i64 8
  %6 = load i64, ptr %5, align 8
  %7 = trunc i64 %6 to i32
  %8 = getelementptr inbounds i8, ptr %0, i64 24
  br label %9

9:                                                ; preds = %12, %4
  %.063.in = phi i32 [ %7, %4 ], [ %.063, %12 ]
  %.062 = phi ptr [ %8, %4 ], [ %16, %12 ]
  %.063 = add i32 %.063.in, -1
  %10 = load ptr, ptr %.062, align 8
  %11 = icmp eq ptr %10, null
  br i1 %11, label %.thread, label %12

12:                                               ; preds = %9
  %13 = zext nneg i32 %.063 to i64
  %14 = lshr i64 %1, %13
  %15 = and i64 %14, 1
  %16 = getelementptr inbounds [2 x ptr], ptr %10, i64 0, i64 %15
  %.not = icmp eq i32 %.063, 0
  br i1 %.not, label %17, label %9

17:                                               ; preds = %12
  %.pr = load ptr, ptr %16, align 8
  %18 = icmp eq ptr %.pr, null
  br i1 %18, label %.thread, label %46

.thread:                                          ; preds = %9, %17
  %.177 = phi ptr [ %16, %17 ], [ %.062, %9 ]
  %.16476 = phi i32 [ -1, %17 ], [ %.063, %9 ]
  %19 = and i32 %3, 1
  %.not70 = icmp eq i32 %19, 0
  br i1 %.not70, label %52, label %20

20:                                               ; preds = %.thread
  %21 = getelementptr inbounds i8, ptr %0, i64 16
  %22 = load i8, ptr %21, align 8
  %23 = and i8 %22, 1
  %.not71 = icmp eq i8 %23, 0
  %24 = add nsw i32 %.16476, 2
  %25 = sext i32 %24 to i64
  %26 = shl nsw i64 %25, 4
  br i1 %.not71, label %29, label %27

27:                                               ; preds = %20
  %28 = tail call noalias ptr @__zend_malloc(i64 noundef %26) #11
  br label %31

29:                                               ; preds = %20
  %30 = tail call noalias ptr @_emalloc(i64 noundef %26) #11
  br label %31

31:                                               ; preds = %29, %27
  %32 = phi ptr [ %28, %27 ], [ %30, %29 ]
  store ptr %32, ptr %.177, align 8
  %33 = zext i32 %.16476 to i64
  br label %34

34:                                               ; preds = %34, %31
  %indvars.iv = phi i64 [ %indvars.iv.next, %34 ], [ %33, %31 ]
  %.2 = phi ptr [ %41, %34 ], [ %.177, %31 ]
  %35 = phi ptr [ %42, %34 ], [ %32, %31 ]
  %36 = lshr i64 %1, %indvars.iv
  %37 = and i64 %36, 1
  %38 = xor i64 %37, 1
  %39 = getelementptr inbounds [2 x ptr], ptr %35, i64 0, i64 %38
  store ptr null, ptr %39, align 8
  %40 = load ptr, ptr %.2, align 8
  %41 = getelementptr inbounds [2 x ptr], ptr %40, i64 0, i64 %37
  %42 = getelementptr inbounds i8, ptr %35, i64 16
  store ptr %42, ptr %41, align 8
  %indvars.iv.next = add nsw i64 %indvars.iv, -1
  %.not73 = icmp eq i64 %indvars.iv, 0
  br i1 %.not73, label %43, label %34

43:                                               ; preds = %34
  %44 = load i64, ptr %0, align 8
  %45 = add i64 %44, 1
  store i64 %45, ptr %0, align 8
  %.pre = load ptr, ptr %41, align 8
  br label %48

46:                                               ; preds = %17
  %47 = and i32 %3, 2
  %.not69 = icmp eq i32 %47, 0
  br i1 %.not69, label %52, label %48

48:                                               ; preds = %46, %43
  %49 = phi ptr [ %.pre, %43 ], [ %.pr, %46 ]
  %.3 = phi ptr [ %41, %43 ], [ %16, %46 ]
  store i64 %1, ptr %49, align 8
  %50 = load ptr, ptr %.3, align 8
  %51 = getelementptr inbounds i8, ptr %50, i64 8
  store ptr %2, ptr %51, align 8
  br label %52

52:                                               ; preds = %46, %.thread, %48
  %.066 = phi i32 [ 0, %48 ], [ -1, %.thread ], [ -1, %46 ]
  ret i32 %.066
}